; Function Attrs: mustprogress uwtable
define void @_ZN8facebook5velox4exec8toStringB5cxx11ERKSt6vectorISt10shared_ptrINS1_17FunctionSignatureEESaIS5_EE(ptr noalias sret(%"class.std::__cxx11::basic_string") align 8 %agg.result, ptr nocapture noundef nonnull readonly align 8 dereferenceable(24) %signatures) local_unnamed_addr #0 personality ptr @__gxx_personality_v0 {
entry:
  %out = alloca %"class.std::__cxx11::basic_stringstream", align 8
  %ref.tmp = alloca %"class.std::__cxx11::basic_string", align 8
  call void @_ZNSt7__cxx1118basic_stringstreamIcSt11char_traitsIcESaIcEEC1Ev(ptr noundef nonnull align 8 dereferenceable(128) %out)
  %_M_finish.i = getelementptr inbounds i8, ptr %signatures, i64 8
  %0 = load ptr, ptr %_M_finish.i, align 8
  %1 = load ptr, ptr %signatures, align 8
  %cmp12.not = icmp eq ptr %0, %1
  br i1 %cmp12.not, label %for.end, label %for.body.lr.ph

for.body.lr.ph:                                   ; preds = %entry
  %add.ptr = getelementptr inbounds i8, ptr %out, i64 16
  br label %for.body

for.body:                                         ; preds = %for.body.lr.ph, %invoke.cont9
  %2 = phi ptr [ %1, %for.body.lr.ph ], [ %7, %invoke.cont9 ]
  %indvars.iv = phi i64 [ 0, %for.body.lr.ph ], [ %indvars.iv.next, %invoke.cont9 ]
  %cmp1.not = icmp eq i64 %indvars.iv, 0
  br i1 %cmp1.not, label %if.end, label %if.then

if.then:                                          ; preds = %for.body
  %call2 = invoke noundef nonnull align 8 dereferenceable(8) ptr @_ZStlsISt11char_traitsIcEERSt13basic_ostreamIcT_ES5_PKc(ptr noundef nonnull align 8 dereferenceable(8) %add.ptr, ptr noundef nonnull @.str.21)
          to label %if.then.if.end_crit_edge unwind label %lpad.loopexit

if.then.if.end_crit_edge:                         ; preds = %if.then
  %.pre = load ptr, ptr %signatures, align 8
  br label %if.end

lpad.loopexit:                                    ; preds = %if.then, %if.end
  %lpad.loopexit6 = landingpad { ptr, i32 }
          cleanup
  br label %ehcleanup

lpad.loopexit.split-lp:                           ; preds = %for.end
  %lpad.loopexit.split-lp7 = landingpad { ptr, i32 }
          cleanup
  br label %ehcleanup

if.end:                                           ; preds = %if.then.if.end_crit_edge, %for.body
  %3 = phi ptr [ %.pre, %if.then.if.end_crit_edge ], [ %2, %for.body ]
  %add.ptr.i = getelementptr inbounds %"class.std::shared_ptr", ptr %3, i64 %indvars.iv
  %4 = load ptr, ptr %add.ptr.i, align 8
  %vtable = load ptr, ptr %4, align 8
  %vfn = getelementptr inbounds i8, ptr %vtable, i64 16
  %5 = load ptr, ptr %vfn, align 8
  invoke void %5(ptr nonnull sret(%"class.std::__cxx11::basic_string") align 8 %ref.tmp, ptr noundef nonnull align 8 dereferenceable(225) %4)
          to label %invoke.cont7 unwind label %lpad.loopexit

invoke.cont7:                                     ; preds = %if.end
  %call10 = invoke noundef nonnull align 8 dereferenceable(8) ptr @_ZStlsIcSt11char_traitsIcESaIcEERSt13basic_ostreamIT_T0_ES7_RKNSt7__cxx1112basic_stringIS4_S5_T1_EE(ptr noundef nonnull align 8 dereferenceable(8) %add.ptr, ptr noundef nonnull align 8 dereferenceable(32) %ref.tmp)
          to label %invoke.cont9 unwind label %lpad8

invoke.cont9:                                     ; preds = %invoke.cont7
  call void @_ZNSt7__cxx1112basic_stringIcSt11char_traitsIcESaIcEED1Ev(ptr noundef nonnull align 8 dereferenceable(32) %ref.tmp) #20
  %indvars.iv.next = add nuw i64 %indvars.iv, 1
  %6 = load ptr, ptr %_M_finish.i, align 8
  %7 = load ptr, ptr %signatures, align 8
  %sub.ptr.lhs.cast.i = ptrtoint ptr %6 to i64
  %sub.ptr.rhs.cast.i = ptrtoint ptr %7 to i64
  %sub.ptr.sub.i = sub i64 %sub.ptr.lhs.cast.i, %sub.ptr.rhs.cast.i
  %sub.ptr.div.i = ashr exact i64 %sub.ptr.sub.i, 4
  %cmp = icmp ugt i64 %sub.ptr.div.i, %indvars.iv.next
  br i1 %cmp, label %for.body, label %for.end, !llvm.loop !29

lpad8:                                            ; preds = %invoke.cont7
  %8 = landingpad { ptr, i32 }
          cleanup
  call void @_ZNSt7__cxx1112basic_stringIcSt11char_traitsIcESaIcEED1Ev(ptr noundef nonnull align 8 dereferenceable(32) %ref.tmp) #20
  br label %ehcleanup

for.end:                                          ; preds = %invoke.cont9, %entry
  invoke void @_ZNKSt7__cxx1118basic_stringstreamIcSt11char_traitsIcESaIcEE3strEv(ptr sret(%"class.std::__cxx11::basic_string") align 8 %agg.result, ptr noundef nonnull align 8 dereferenceable(128) %out)
          to label %invoke.cont11 unwind label %lpad.loopexit.split-lp

invoke.cont11:                                    ; preds = %for.end
  call void @_ZNSt7__cxx1118basic_stringstreamIcSt11char_traitsIcESaIcEED1Ev(ptr noundef nonnull align 8 dereferenceable(128) %out) #20
  ret void

ehcleanup:                                        ; preds = %lpad.loopexit, %lpad.loopexit.split-lp, %lpad8
  %.pn = phi { ptr, i32 } [ %8, %lpad8 ], [ %lpad.loopexit6, %lpad.loopexit ], [ %lpad.loopexit.split-lp7, %lpad.loopexit.split-lp ]
  call void @_ZNSt7__cxx1118basic_stringstreamIcSt11char_traitsIcESaIcEED1Ev(ptr noundef nonnull align 8 dereferenceable(128) %out) #20
  resume { ptr, i32 } %.pn
}